target datalayout = "e-m:e-p270:32:32-p271:32:32-p272:64:64-i64:64-i128:128-f80:128-n8:16:32:64-S128"
target triple = "x86_64-pc-linux-gnu"

%class.btManifoldPoint = type <{ %class.btVector3, %class.btVector3, %class.btVector3, %class.btVector3, %class.btVector3, float, float, float, float, float, i32, i32, i32, i32, [4 x i8], ptr, i32, float, float, float, float, float, float, %union.anon.0, %union.anon.1, float, i32, %class.btVector3, %class.btVector3, [4 x i8] }>
%union.anon.0 = type { float }
%union.anon.1 = type { float }
%class.btVector3 = type { [4 x float] }

@gContactDestroyedCallback = dso_local global ptr null, align 8

; Function Attrs: mustprogress uwtable
define dso_local void @_ZN20btPersistentManifold14clearUserCacheER15btManifoldPoint(ptr noundef nonnull align 8 dereferenceable(880) %0, ptr noundef nonnull align 8 dereferenceable(204) %1) #2 align 2 {
  %3 = alloca ptr, align 8
  %4 = alloca ptr, align 8
  %5 = alloca ptr, align 8
  store ptr %0, ptr %3, align 8, !tbaa !12
  store ptr %1, ptr %4, align 8, !tbaa !27
  call void @llvm.lifetime.start.p0(i64 8, ptr %5) #11
  %6 = load ptr, ptr %4, align 8, !tbaa !27
  %7 = getelementptr inbounds nuw %class.btManifoldPoint, ptr %6, i32 0, i32 15
  %8 = load ptr, ptr %7, align 8, !tbaa !29
  store ptr %8, ptr %5, align 8, !tbaa !41
  %9 = load ptr, ptr %5, align 8, !tbaa !41
  %10 = icmp ne ptr %9, null
  br i1 %10, label %11, label %28

11:                                               ; preds = %2
  %12 = load ptr, ptr %4, align 8, !tbaa !27
  %13 = getelementptr inbounds nuw %class.btManifoldPoint, ptr %12, i32 0, i32 15
  %14 = load ptr, ptr %13, align 8, !tbaa !29
  %15 = icmp ne ptr %14, null
  br i1 %15, label %16, label %27

16:                                               ; preds = %11
  %17 = load ptr, ptr @gContactDestroyedCallback, align 8, !tbaa !41
  %18 = icmp ne ptr %17, null
  br i1 %18, label %19, label %27

19:                                               ; preds = %16
  %20 = load ptr, ptr @gContactDestroyedCallback, align 8, !tbaa !41
  %21 = load ptr, ptr %4, align 8, !tbaa !27
  %22 = getelementptr inbounds nuw %class.btManifoldPoint, ptr %21, i32 0, i32 15
  %23 = load ptr, ptr %22, align 8, !tbaa !29
  %24 = call noundef zeroext i1 %20(ptr noundef %23)
  %25 = load ptr, ptr %4, align 8, !tbaa !27
  %26 = getelementptr inbounds nuw %class.btManifoldPoint, ptr %25, i32 0, i32 15
  store ptr null, ptr %26, align 8, !tbaa !29
  br label %27

27:                                               ; preds = %19, %16, %11
  br label %28

28:                                               ; preds = %27, %2
  call void @llvm.lifetime.end.p0(i64 8, ptr %5) #11
  ret void
}