; Function Attrs: mustprogress uwtable
define dso_local void @_ZN20btPersistentManifold14clearUserCacheER15btManifoldPoint(ptr noundef nonnull readnone align 8 captures(none) dereferenceable(880) %0, ptr noundef nonnull align 8 captures(none) dereferenceable(204) %1) local_unnamed_addr #1 align 2 {
  %3 = getelementptr inbounds nuw i8, ptr %1, i64 120
  %4 = load ptr, ptr %3, align 8, !tbaa !16
  %.not = icmp eq ptr %4, null
  br i1 %.not, label %9, label %5

5:                                                ; preds = %2
  %6 = load ptr, ptr @gContactDestroyedCallback, align 8
  %.not7 = icmp eq ptr %6, null
  br i1 %.not7, label %9, label %7

7:                                                ; preds = %5
  %8 = tail call noundef zeroext i1 %6(ptr noundef nonnull %4)
  store ptr null, ptr %3, align 8, !tbaa !16
  br label %9

9:                                                ; preds = %5, %7, %2
  ret void
}